target datalayout = "e-m:e-p270:32:32-p271:32:32-p272:64:64-i64:64-i128:128-f80:128-n8:16:32:64-S128"
target triple = "x86_64-pc-linux-gnu"

%"class.llvm::vfs::Status" = type <{ %"class.std::__cxx11::basic_string", %"class.llvm::sys::fs::UniqueID", %"class.std::chrono::time_point", i32, i32, i64, i32, i32, i8, [7 x i8] }>
%"class.std::__cxx11::basic_string" = type { %"struct.std::__cxx11::basic_string<char>::_Alloc_hider", i64, %union.anon }
%"struct.std::__cxx11::basic_string<char>::_Alloc_hider" = type { ptr }
%union.anon = type { i64, [8 x i8] }
%"class.llvm::sys::fs::UniqueID" = type { i64, i64 }
%"class.std::chrono::time_point" = type { %"class.std::chrono::duration" }
%"class.std::chrono::duration" = type { i64 }
%"class.llvm::ErrorOr.12" = type { %union.anon.13, i8, [7 x i8] }
%union.anon.13 = type { %"struct.llvm::AlignedCharArrayUnion.14" }
%"struct.llvm::AlignedCharArrayUnion.14" = type { [88 x i8] }
%"class.std::unique_ptr" = type { %"struct.std::__uniq_ptr_data" }
%"struct.std::__uniq_ptr_data" = type { %"class.std::__uniq_ptr_impl" }
%"class.std::__uniq_ptr_impl" = type { %"class.std::tuple" }
%"class.std::tuple" = type { %"struct.std::_Tuple_impl" }
%"struct.std::_Tuple_impl" = type { %"struct.std::_Head_base.7" }
%"struct.std::_Head_base.7" = type { ptr }
%"class.llvm::vfs::File" = type { ptr }
%"class.(anonymous namespace)::FileWithFixedStatus" = type { %"class.llvm::vfs::File", %"class.std::unique_ptr", %"class.llvm::vfs::Status" }

; Function Attrs: mustprogress nounwind uwtable
define linkonce_odr hidden void @_ZN4llvm3vfs6StatusC2ERKS1_(ptr noundef nonnull align 8 dereferenceable(81) %0, ptr noundef nonnull align 8 dereferenceable(81) %1) unnamed_addr #0 comdat align 2 {
  %3 = alloca ptr, align 8
  %4 = alloca ptr, align 8
  store ptr %0, ptr %3, align 8
  store ptr %1, ptr %4, align 8
  %5 = load ptr, ptr %3, align 8
  %6 = getelementptr inbounds nuw %"class.llvm::vfs::Status", ptr %5, i32 0, i32 0
  %7 = load ptr, ptr %4, align 8
  %8 = getelementptr inbounds nuw %"class.llvm::vfs::Status", ptr %7, i32 0, i32 0
  call void @_ZNSt7__cxx1112basic_stringIcSt11char_traitsIcESaIcEEC1ERKS4_(ptr noundef nonnull align 8 dereferenceable(32) %6, ptr noundef nonnull align 8 dereferenceable(32) %8)
  %9 = getelementptr inbounds nuw %"class.llvm::vfs::Status", ptr %5, i32 0, i32 1
  %10 = load ptr, ptr %4, align 8
  %11 = getelementptr inbounds nuw %"class.llvm::vfs::Status", ptr %10, i32 0, i32 1
  call void @llvm.memcpy.p0.p0.i64(ptr align 8 %9, ptr align 8 %11, i64 49, i1 false)
  ret void
}

; Function Attrs: mustprogress nounwind uwtable
define linkonce_odr hidden noundef ptr @_ZN4llvm7ErrorOrINS_3vfs6StatusEE10getStorageEv(ptr noundef nonnull align 8 dereferenceable(89) %0) #0 comdat align 2 {
  %2 = alloca ptr, align 8
  store ptr %0, ptr %2, align 8
  %3 = load ptr, ptr %2, align 8
  %4 = getelementptr inbounds nuw %"class.llvm::ErrorOr.12", ptr %3, i32 0, i32 0
  ret ptr %4
}

; Function Attrs: mustprogress nounwind uwtable
define linkonce_odr hidden void @_ZN4llvm7ErrorOrINS_3vfs6StatusEEC2IRS2_EEOT_PNSt9enable_ifIXsr3stdE16is_convertible_vIS6_S2_EEvE4typeE(ptr noundef nonnull align 8 dereferenceable(89) %0, ptr noundef nonnull align 8 dereferenceable(81) %1, ptr noundef %2) unnamed_addr #0 comdat align 2 {
  %4 = alloca ptr, align 8
  %5 = alloca ptr, align 8
  %6 = alloca ptr, align 8
  store ptr %0, ptr %4, align 8
  store ptr %1, ptr %5, align 8
  store ptr %2, ptr %6, align 8
  %7 = load ptr, ptr %4, align 8
  %8 = getelementptr inbounds nuw %"class.llvm::ErrorOr.12", ptr %7, i32 0, i32 1
  %9 = load i8, ptr %8, align 8
  %10 = and i8 %9, -2
  %11 = or i8 %10, 0
  store i8 %11, ptr %8, align 8
  %12 = call noundef ptr @_ZN4llvm7ErrorOrINS_3vfs6StatusEE10getStorageEv(ptr noundef nonnull align 8 dereferenceable(89) %7)
  %13 = load ptr, ptr %5, align 8
  call void @_ZN4llvm3vfs6StatusC2ERKS1_(ptr noundef nonnull align 8 dereferenceable(81) %12, ptr noundef nonnull align 8 dereferenceable(81) %13)
  ret void
}

; Function Attrs: mustprogress nounwind uwtable
define internal void @_ZN12_GLOBAL__N_119FileWithFixedStatus6statusEv(ptr dead_on_unwind noalias writable sret(%"class.llvm::ErrorOr.12") align 8 %0, ptr noundef nonnull align 8 dereferenceable(104) %1) unnamed_addr #0 align 2 {
  %3 = alloca ptr, align 8
  %4 = alloca ptr, align 8
  store ptr %0, ptr %3, align 8
  store ptr %1, ptr %4, align 8
  %5 = load ptr, ptr %4, align 8
  %6 = getelementptr inbounds nuw %"class.(anonymous namespace)::FileWithFixedStatus", ptr %5, i32 0, i32 2
  call void @_ZN4llvm7ErrorOrINS_3vfs6StatusEEC2IRS2_EEOT_PNSt9enable_ifIXsr3stdE16is_convertible_vIS6_S2_EEvE4typeE(ptr noundef nonnull align 8 dereferenceable(89) %0, ptr noundef nonnull align 8 dereferenceable(81) %6, ptr noundef null)
  ret void
}