; Function Attrs: mustprogress nounwind uwtable
define internal void @_ZN12_GLOBAL__N_119FileWithFixedStatus6statusEv(ptr dead_on_unwind noalias nonnull writable sret(%"class.llvm::ErrorOr.12") align 8 %0, ptr noundef nonnull align 8 dereferenceable(104) %1) unnamed_addr #0 align 2 {
  %3 = getelementptr inbounds nuw i8, ptr %1, i64 16
  %4 = getelementptr inbounds nuw i8, ptr %0, i64 88
  %5 = load i8, ptr %4, align 8
  %6 = and i8 %5, -2
  store i8 %6, ptr %4, align 8
  tail call void @_ZNSt7__cxx1112basic_stringIcSt11char_traitsIcESaIcEEC1ERKS4_(ptr noundef nonnull align 8 dereferenceable(32) %0, ptr noundef nonnull align 8 dereferenceable(32) %3) #27
  %7 = getelementptr inbounds nuw i8, ptr %0, i64 32
  %8 = getelementptr inbounds i8, ptr %1, i64 48
  tail call void @llvm.memcpy.p0.p0.i64(ptr noundef nonnull align 8 dereferenceable(49) %7, ptr noundef nonnull align 8 dereferenceable(49) %8, i64 49, i1 false)
  ret void
}